; Function Attrs: mustprogress uwtable
define dso_local void @_ZN26cmCTestMultiProcessHandler12MarkFinishedEv(ptr nocapture noundef nonnull readonly align 8 dereferenceable(870) %0) local_unnamed_addr #3 align 2 personality ptr @__gxx_personality_v0 {
  %2 = alloca %"class.std::__cxx11::basic_string", align 8
  %3 = alloca %"class.std::__cxx11::basic_string", align 8
  %4 = getelementptr inbounds i8, ptr %0, i64 848
  %5 = load ptr, ptr %4, align 8
  call void @_ZN7cmCTest12GetBinaryDirB5cxx11Ev(ptr dead_on_unwind nonnull writable sret(%"class.std::__cxx11::basic_string") align 8 %3, ptr noundef nonnull align 8 dereferenceable(8) %5)
  %6 = invoke noundef nonnull align 8 dereferenceable(32) ptr @_ZNSt7__cxx1112basic_stringIcSt11char_traitsIcESaIcEE6appendEPKc(ptr noundef nonnull align 8 dereferenceable(32) %3, ptr noundef nonnull @.str.40)
          to label %7 unwind label %10

7:                                                ; preds = %1
  call void @_ZNSt7__cxx1112basic_stringIcSt11char_traitsIcESaIcEEC1EOS4_(ptr noundef nonnull align 8 dereferenceable(32) %2, ptr noundef nonnull align 8 dereferenceable(32) %6) #25
  call void @_ZNSt7__cxx1112basic_stringIcSt11char_traitsIcESaIcEED1Ev(ptr noundef nonnull align 8 dereferenceable(32) %3) #25
  %8 = invoke i64 @_ZN5cmsys11SystemTools10RemoveFileERKNSt7__cxx1112basic_stringIcSt11char_traitsIcESaIcEEE(ptr noundef nonnull align 8 dereferenceable(32) %2)
          to label %9 unwind label %12

9:                                                ; preds = %7
  call void @_ZNSt7__cxx1112basic_stringIcSt11char_traitsIcESaIcEED1Ev(ptr noundef nonnull align 8 dereferenceable(32) %2) #25
  ret void

10:                                               ; preds = %1
  %11 = landingpad { ptr, i32 }
          cleanup
  br label %14

12:                                               ; preds = %7
  %13 = landingpad { ptr, i32 }
          cleanup
  br label %14

14:                                               ; preds = %12, %10
  %.sink = phi ptr [ %2, %12 ], [ %3, %10 ]
  %.pn = phi { ptr, i32 } [ %13, %12 ], [ %11, %10 ]
  call void @_ZNSt7__cxx1112basic_stringIcSt11char_traitsIcESaIcEED1Ev(ptr noundef nonnull align 8 dereferenceable(32) %.sink) #25
  resume { ptr, i32 } %.pn
}